target datalayout = "e-m:e-p270:32:32-p271:32:32-p272:64:64-i64:64-i128:128-f80:128-n8:16:32:64-S128"
target triple = "x86_64-pc-linux-gnu"

; Function Attrs: nounwind uwtable
define internal void @sbr_neg_odd_64_c(ptr noundef %0) #1 {
  %2 = alloca ptr, align 8
  %3 = alloca i32, align 4
  store ptr %0, ptr %2, align 8, !tbaa !21
  call void @llvm.lifetime.start.p0(i64 4, ptr %3) #8
  store i32 1, ptr %3, align 4, !tbaa !23
  br label %4

4:                                                ; preds = %18, %1
  %5 = load i32, ptr %3, align 4, !tbaa !23
  %6 = icmp slt i32 %5, 64
  br i1 %6, label %7, label %21

7:                                                ; preds = %4
  %8 = load ptr, ptr %2, align 8, !tbaa !21
  %9 = load i32, ptr %3, align 4, !tbaa !23
  %10 = sext i32 %9 to i64
  %11 = getelementptr inbounds i32, ptr %8, i64 %10
  %12 = load i32, ptr %11, align 4, !tbaa !23
  %13 = sub i32 0, %12
  %14 = load ptr, ptr %2, align 8, !tbaa !21
  %15 = load i32, ptr %3, align 4, !tbaa !23
  %16 = sext i32 %15 to i64
  %17 = getelementptr inbounds i32, ptr %14, i64 %16
  store i32 %13, ptr %17, align 4, !tbaa !23
  br label %18

18:                                               ; preds = %7
  %19 = load i32, ptr %3, align 4, !tbaa !23
  %20 = add nsw i32 %19, 2
  store i32 %20, ptr %3, align 4, !tbaa !23
  br label %4, !llvm.loop !33

21:                                               ; preds = %4
  call void @llvm.lifetime.end.p0(i64 4, ptr %3) #8
  ret void
}