; Function Attrs: nofree norecurse nosync nounwind memory(argmem: readwrite) uwtable
define internal void @sbr_neg_odd_64_c(ptr noundef captures(none) %0) #1 {
  br label %2

2:                                                ; preds = %1, %2
  %indvars.iv = phi i64 [ 1, %1 ], [ %indvars.iv.next, %2 ]
  %3 = getelementptr inbounds nuw i32, ptr %0, i64 %indvars.iv
  %4 = load i32, ptr %3, align 4, !tbaa !19
  %5 = sub i32 0, %4
  store i32 %5, ptr %3, align 4, !tbaa !19
  %indvars.iv.next = add nuw nsw i64 %indvars.iv, 2
  %6 = icmp samesign ult i64 %indvars.iv, 62
  br i1 %6, label %2, label %7, !llvm.loop !27

7:                                                ; preds = %2
  ret void
}